target datalayout = "e-m:e-p270:32:32-p271:32:32-p272:64:64-i64:64-i128:128-f80:128-n8:16:32:64-S128"
target triple = "x86_64-pc-linux-gnu"

@.str = private unnamed_addr constant [37 x i8] c"PMIX ERROR: %s in file %s at line %d\00", align 1
@.str.1 = private unnamed_addr constant [13 x i8] c"pmix_shmem.c\00", align 1

; Function Attrs: nounwind uwtable
define internal i64 @get_page_size() #0 {
  %1 = alloca i64, align 8
  %2 = alloca i64, align 8
  %3 = alloca i32, align 4
  call void @llvm.lifetime.start.p0(i64 8, ptr %2) #7
  %4 = call i64 @sysconf(i32 noundef 30) #7
  store i64 %4, ptr %2, align 8, !tbaa !8
  %5 = load i64, ptr %2, align 8, !tbaa !8
  %6 = icmp eq i64 -1, %5
  br i1 %6, label %7, label %12

7:                                                ; preds = %0
  br label %8

8:                                                ; preds = %7
  %9 = call ptr @PMIx_Error_string(i32 noundef -1)
  call void (i32, ptr, ...) @pmix_output(i32 noundef 0, ptr noundef @.str, ptr noundef %9, ptr noundef @.str.1, i32 noundef 240)
  br label %10

10:                                               ; preds = %8
  br label %11

11:                                               ; preds = %10
  store i64 0, ptr %1, align 8
  store i32 1, ptr %3, align 4
  br label %14

12:                                               ; preds = %0
  %13 = load i64, ptr %2, align 8, !tbaa !8
  store i64 %13, ptr %1, align 8
  store i32 1, ptr %3, align 4
  br label %14

14:                                               ; preds = %12, %11
  call void @llvm.lifetime.end.p0(i64 8, ptr %2) #7
  %15 = load i64, ptr %1, align 8
  ret i64 %15
}

; Function Attrs: nounwind uwtable
define i64 @pmix_shmem_utils_pad_to_page(i64 noundef %0) #0 {
  %2 = alloca i64, align 8
  %3 = alloca i64, align 8
  %4 = alloca i64, align 8
  store i64 %0, ptr %2, align 8, !tbaa !8
  call void @llvm.lifetime.start.p0(i64 8, ptr %3) #7
  %5 = call i64 @get_page_size()
  store i64 %5, ptr %3, align 8, !tbaa !8
  call void @llvm.lifetime.start.p0(i64 8, ptr %4) #7
  %6 = load i64, ptr %2, align 8, !tbaa !8
  %7 = xor i64 %6, -1
  %8 = load i64, ptr %3, align 8, !tbaa !8
  %9 = add i64 %7, %8
  %10 = add i64 %9, 1
  %11 = load i64, ptr %3, align 8, !tbaa !8
  %12 = sub i64 %11, 1
  %13 = and i64 %10, %12
  store i64 %13, ptr %4, align 8, !tbaa !8
  %14 = load i64, ptr %2, align 8, !tbaa !8
  %15 = load i64, ptr %4, align 8, !tbaa !8
  %16 = add i64 %14, %15
  call void @llvm.lifetime.end.p0(i64 8, ptr %4) #7
  call void @llvm.lifetime.end.p0(i64 8, ptr %3) #7
  ret i64 %16
}