; Function Attrs: nounwind uwtable
define i64 @pmix_shmem_utils_pad_to_page(i64 noundef %0) local_unnamed_addr #0 {
  %2 = tail call i64 @sysconf(i32 noundef 30) #8
  %3 = icmp eq i64 %2, -1
  br i1 %3, label %4, label %get_page_size.exit

4:                                                ; preds = %1
  %5 = tail call ptr @PMIx_Error_string(i32 noundef -1) #8
  tail call void (i32, ptr, ...) @pmix_output(i32 noundef 0, ptr noundef nonnull @.str, ptr noundef %5, ptr noundef nonnull @.str.1, i32 noundef 240) #8
  br label %get_page_size.exit

get_page_size.exit:                               ; preds = %1, %4
  %.0.i = phi i64 [ 0, %4 ], [ %2, %1 ]
  %6 = sub i64 %.0.i, %0
  %7 = add i64 %.0.i, -1
  %8 = and i64 %6, %7
  %9 = add i64 %8, %0
  ret i64 %9
}